target datalayout = "e-m:e-p270:32:32-p271:32:32-p272:64:64-i64:64-i128:128-f80:128-n8:16:32:64-S128"
target triple = "x86_64-pc-linux-gnu"

; Function Attrs: mustprogress uwtable
define void @_ZN4LIEF5MachO4Hash5visitERKNS0_6SymbolE(ptr noundef nonnull align 8 dereferenceable(64) %0, ptr noundef nonnull align 8 dereferenceable(100) %1) unnamed_addr #3 align 2 {
  %3 = alloca ptr, align 8
  %4 = alloca ptr, align 8
  store ptr %0, ptr %3, align 8
  store ptr %1, ptr %4, align 8
  %5 = load ptr, ptr %3, align 8
  %6 = load ptr, ptr %4, align 8
  %7 = load ptr, ptr %6, align 8
  %8 = getelementptr inbounds ptr, ptr %7, i64 5
  %9 = load ptr, ptr %8, align 8
  %10 = call noundef nonnull align 8 dereferenceable(32) ptr %9(ptr noundef nonnull align 8 dereferenceable(56) %6)
  %11 = load ptr, ptr %5, align 8
  %12 = getelementptr inbounds ptr, ptr %11, i64 167
  %13 = load ptr, ptr %12, align 8
  %14 = call noundef nonnull align 8 dereferenceable(64) ptr %13(ptr noundef nonnull align 8 dereferenceable(64) %5, ptr noundef nonnull align 8 dereferenceable(32) %10)
  %15 = load ptr, ptr %4, align 8
  %16 = load ptr, ptr %15, align 8
  %17 = getelementptr inbounds ptr, ptr %16, i64 8
  %18 = load ptr, ptr %17, align 8
  %19 = call noundef i64 %18(ptr noundef nonnull align 8 dereferenceable(56) %15)
  %20 = load ptr, ptr %5, align 8
  %21 = getelementptr inbounds ptr, ptr %20, i64 166
  %22 = load ptr, ptr %21, align 8
  %23 = call noundef nonnull align 8 dereferenceable(64) ptr %22(ptr noundef nonnull align 8 dereferenceable(64) %5, i64 noundef %19)
  %24 = load ptr, ptr %4, align 8
  %25 = load ptr, ptr %24, align 8
  %26 = getelementptr inbounds ptr, ptr %25, i64 10
  %27 = load ptr, ptr %26, align 8
  %28 = call noundef i64 %27(ptr noundef nonnull align 8 dereferenceable(56) %24)
  %29 = load ptr, ptr %5, align 8
  %30 = getelementptr inbounds ptr, ptr %29, i64 166
  %31 = load ptr, ptr %30, align 8
  %32 = call noundef nonnull align 8 dereferenceable(64) ptr %31(ptr noundef nonnull align 8 dereferenceable(64) %5, i64 noundef %28)
  %33 = load ptr, ptr %4, align 8
  %34 = call noundef zeroext i8 @_ZNK4LIEF5MachO6Symbol4typeEv(ptr noundef nonnull align 8 dereferenceable(100) %33)
  %35 = zext i8 %34 to i64
  %36 = load ptr, ptr %5, align 8
  %37 = getelementptr inbounds ptr, ptr %36, i64 166
  %38 = load ptr, ptr %37, align 8
  %39 = call noundef nonnull align 8 dereferenceable(64) ptr %38(ptr noundef nonnull align 8 dereferenceable(64) %5, i64 noundef %35)
  %40 = load ptr, ptr %4, align 8
  %41 = call noundef zeroext i8 @_ZNK4LIEF5MachO6Symbol17numberof_sectionsEv(ptr noundef nonnull align 8 dereferenceable(100) %40)
  %42 = zext i8 %41 to i64
  %43 = load ptr, ptr %5, align 8
  %44 = getelementptr inbounds ptr, ptr %43, i64 166
  %45 = load ptr, ptr %44, align 8
  %46 = call noundef nonnull align 8 dereferenceable(64) ptr %45(ptr noundef nonnull align 8 dereferenceable(64) %5, i64 noundef %42)
  %47 = load ptr, ptr %4, align 8
  %48 = call noundef zeroext i16 @_ZNK4LIEF5MachO6Symbol11descriptionEv(ptr noundef nonnull align 8 dereferenceable(100) %47)
  %49 = zext i16 %48 to i64
  %50 = load ptr, ptr %5, align 8
  %51 = getelementptr inbounds ptr, ptr %50, i64 166
  %52 = load ptr, ptr %51, align 8
  %53 = call noundef nonnull align 8 dereferenceable(64) ptr %52(ptr noundef nonnull align 8 dereferenceable(64) %5, i64 noundef %49)
  ret void
}