; Function Attrs: mustprogress uwtable
define void @_ZN4LIEF5MachO4Hash5visitERKNS0_6SymbolE(ptr noundef nonnull align 8 dereferenceable(64) %0, ptr noundef nonnull align 8 dereferenceable(100) %1) unnamed_addr #3 align 2 {
  %3 = load ptr, ptr %1, align 8
  %4 = getelementptr inbounds i8, ptr %3, i64 40
  %5 = load ptr, ptr %4, align 8
  %6 = tail call noundef nonnull align 8 dereferenceable(32) ptr %5(ptr noundef nonnull align 8 dereferenceable(56) %1)
  %7 = load ptr, ptr %0, align 8
  %8 = getelementptr inbounds i8, ptr %7, i64 1336
  %9 = load ptr, ptr %8, align 8
  %10 = tail call noundef nonnull align 8 dereferenceable(64) ptr %9(ptr noundef nonnull align 8 dereferenceable(64) %0, ptr noundef nonnull align 8 dereferenceable(32) %6)
  %11 = load ptr, ptr %1, align 8
  %12 = getelementptr inbounds i8, ptr %11, i64 64
  %13 = load ptr, ptr %12, align 8
  %14 = tail call noundef i64 %13(ptr noundef nonnull align 8 dereferenceable(56) %1)
  %15 = load ptr, ptr %0, align 8
  %16 = getelementptr inbounds i8, ptr %15, i64 1328
  %17 = load ptr, ptr %16, align 8
  %18 = tail call noundef nonnull align 8 dereferenceable(64) ptr %17(ptr noundef nonnull align 8 dereferenceable(64) %0, i64 noundef %14)
  %19 = load ptr, ptr %1, align 8
  %20 = getelementptr inbounds i8, ptr %19, i64 80
  %21 = load ptr, ptr %20, align 8
  %22 = tail call noundef i64 %21(ptr noundef nonnull align 8 dereferenceable(56) %1)
  %23 = load ptr, ptr %0, align 8
  %24 = getelementptr inbounds i8, ptr %23, i64 1328
  %25 = load ptr, ptr %24, align 8
  %26 = tail call noundef nonnull align 8 dereferenceable(64) ptr %25(ptr noundef nonnull align 8 dereferenceable(64) %0, i64 noundef %22)
  %27 = tail call noundef zeroext i8 @_ZNK4LIEF5MachO6Symbol4typeEv(ptr noundef nonnull align 8 dereferenceable(100) %1)
  %28 = zext i8 %27 to i64
  %29 = load ptr, ptr %0, align 8
  %30 = getelementptr inbounds i8, ptr %29, i64 1328
  %31 = load ptr, ptr %30, align 8
  %32 = tail call noundef nonnull align 8 dereferenceable(64) ptr %31(ptr noundef nonnull align 8 dereferenceable(64) %0, i64 noundef %28)
  %33 = tail call noundef zeroext i8 @_ZNK4LIEF5MachO6Symbol17numberof_sectionsEv(ptr noundef nonnull align 8 dereferenceable(100) %1)
  %34 = zext i8 %33 to i64
  %35 = load ptr, ptr %0, align 8
  %36 = getelementptr inbounds i8, ptr %35, i64 1328
  %37 = load ptr, ptr %36, align 8
  %38 = tail call noundef nonnull align 8 dereferenceable(64) ptr %37(ptr noundef nonnull align 8 dereferenceable(64) %0, i64 noundef %34)
  %39 = tail call noundef zeroext i16 @_ZNK4LIEF5MachO6Symbol11descriptionEv(ptr noundef nonnull align 8 dereferenceable(100) %1)
  %40 = zext i16 %39 to i64
  %41 = load ptr, ptr %0, align 8
  %42 = getelementptr inbounds i8, ptr %41, i64 1328
  %43 = load ptr, ptr %42, align 8
  %44 = tail call noundef nonnull align 8 dereferenceable(64) ptr %43(ptr noundef nonnull align 8 dereferenceable(64) %0, i64 noundef %40)
  ret void
}